; Function Attrs: nounwind uwtable
define ptr @Abc_NtkDontCareTransfer_rec(ptr noundef %0, ptr noundef %1, ptr noundef %2) local_unnamed_addr #0 {
  %4 = tail call fastcc i32 @Abc_NodeIsTravIdCurrent(ptr noundef %1)
  %.not = icmp eq i32 %4, 0
  br i1 %.not, label %8, label %5

5:                                                ; preds = %3
  %6 = getelementptr inbounds nuw i8, ptr %1, i64 64
  %7 = load ptr, ptr %6, align 8, !tbaa !110
  br label %common.ret40

8:                                                ; preds = %3
  %.val = load ptr, ptr %1, align 8, !tbaa !78
  %9 = getelementptr i8, ptr %1, i64 16
  %.val31 = load i32, ptr %9, align 8, !tbaa !81
  %10 = getelementptr inbounds nuw i8, ptr %.val, i64 216
  %11 = load i32, ptr %10, align 8, !tbaa !82
  %12 = getelementptr inbounds nuw i8, ptr %.val, i64 224
  %13 = add nsw i32 %.val31, 1
  %14 = getelementptr inbounds nuw i8, ptr %.val, i64 228
  %15 = load i32, ptr %14, align 4, !tbaa !37
  %.not.i.not.i.i.i = icmp slt i32 %.val31, %15
  br i1 %.not.i.not.i.i.i, label %Abc_NodeSetTravIdCurrent.exit, label %16

16:                                               ; preds = %8
  %17 = load i32, ptr %12, align 8, !tbaa !39
  %18 = shl nsw i32 %17, 1
  %.not.i.i.i = icmp slt i32 %.val31, %18
  %.not.i.i.not.i.i.i = icmp sgt i32 %17, %.val31
  br i1 %.not.i.i.i, label %31, label %19

19:                                               ; preds = %16
  br i1 %.not.i.i.not.i.i.i, label %Vec_IntGrow.exit.i.i.i.i, label %20

20:                                               ; preds = %19
  %21 = getelementptr inbounds nuw i8, ptr %.val, i64 232
  %22 = load ptr, ptr %21, align 8, !tbaa !40
  %.not9.i.i.i.i.i = icmp eq ptr %22, null
  %23 = sext i32 %13 to i64
  %24 = shl nsw i64 %23, 2
  br i1 %.not9.i.i.i.i.i, label %27, label %25

25:                                               ; preds = %20
  %26 = tail call ptr @realloc(ptr noundef nonnull %22, i64 noundef %24) #22
  br label %29

27:                                               ; preds = %20
  %28 = tail call noalias ptr @malloc(i64 noundef %24) #20
  br label %29

29:                                               ; preds = %27, %25
  %30 = phi ptr [ %26, %25 ], [ %28, %27 ]
  store ptr %30, ptr %21, align 8, !tbaa !40
  br label %Vec_IntGrow.exit.sink.split.i.i.i.i

31:                                               ; preds = %16
  br i1 %.not.i.i.not.i.i.i, label %Vec_IntGrow.exit.i.i.i.i, label %32

32:                                               ; preds = %31
  %33 = getelementptr inbounds nuw i8, ptr %.val, i64 232
  %34 = load ptr, ptr %33, align 8, !tbaa !40
  %.not9.i21.i.i.i.i = icmp eq ptr %34, null
  %35 = sext i32 %18 to i64
  %36 = shl nsw i64 %35, 2
  br i1 %.not9.i21.i.i.i.i, label %39, label %37

37:                                               ; preds = %32
  %38 = tail call ptr @realloc(ptr noundef nonnull %34, i64 noundef %36) #22
  br label %41

39:                                               ; preds = %32
  %40 = tail call noalias ptr @malloc(i64 noundef %36) #20
  br label %41

41:                                               ; preds = %39, %37
  %42 = phi ptr [ %38, %37 ], [ %40, %39 ]
  store ptr %42, ptr %33, align 8, !tbaa !40
  br label %Vec_IntGrow.exit.sink.split.i.i.i.i

Vec_IntGrow.exit.sink.split.i.i.i.i:              ; preds = %41, %29
  %.sink.i.i.i.i = phi i32 [ %18, %41 ], [ %13, %29 ]
  store i32 %.sink.i.i.i.i, ptr %12, align 8, !tbaa !39
  %.pre.i.i.i = load i32, ptr %14, align 4, !tbaa !37
  br label %Vec_IntGrow.exit.i.i.i.i

Vec_IntGrow.exit.i.i.i.i:                         ; preds = %Vec_IntGrow.exit.sink.split.i.i.i.i, %31, %19
  %43 = phi i32 [ %.pre.i.i.i, %Vec_IntGrow.exit.sink.split.i.i.i.i ], [ %15, %31 ], [ %15, %19 ]
  %.not4.i.i.i = icmp sgt i32 %43, %.val31
  br i1 %.not4.i.i.i, label %._crit_edge.i.i.i.i, label %.lr.ph.i.i.i.i

.lr.ph.i.i.i.i:                                   ; preds = %Vec_IntGrow.exit.i.i.i.i
  %44 = getelementptr inbounds nuw i8, ptr %.val, i64 232
  %45 = load ptr, ptr %44, align 8, !tbaa !40
  %46 = sext i32 %43 to i64
  %47 = shl nsw i64 %46, 2
  %scevgep.i.i.i.i = getelementptr i8, ptr %45, i64 %47
  %48 = sub i32 %.val31, %43
  %49 = zext i32 %48 to i64
  %50 = shl nuw nsw i64 %49, 2
  %51 = add nuw nsw i64 %50, 4
  tail call void @llvm.memset.p0.i64(ptr noundef nonnull align 4 dereferenceable(1) %scevgep.i.i.i.i, i8 0, i64 %51, i1 false), !tbaa !48
  br label %._crit_edge.i.i.i.i

._crit_edge.i.i.i.i:                              ; preds = %.lr.ph.i.i.i.i, %Vec_IntGrow.exit.i.i.i.i
  store i32 %13, ptr %14, align 4, !tbaa !37
  br label %Abc_NodeSetTravIdCurrent.exit

Abc_NodeSetTravIdCurrent.exit:                    ; preds = %8, %._crit_edge.i.i.i.i
  %52 = getelementptr i8, ptr %.val, i64 232
  %.val.i.i.i = load ptr, ptr %52, align 8, !tbaa !40
  %53 = sext i32 %.val31 to i64
  %54 = getelementptr inbounds i32, ptr %.val.i.i.i, i64 %53
  store i32 %11, ptr %54, align 4, !tbaa !48
  %55 = icmp eq ptr %1, %2
  br i1 %55, label %56, label %58

56:                                               ; preds = %Abc_NodeSetTravIdCurrent.exit
  %57 = getelementptr inbounds nuw i8, ptr %1, i64 64
  store ptr inttoptr (i64 1 to ptr), ptr %57, align 8, !tbaa !110
  br label %common.ret40

common.ret40:                                     ; preds = %56, %5, %58
  %common.ret40.op = phi ptr [ %103, %58 ], [ %7, %5 ], [ inttoptr (i64 1 to ptr), %56 ]
  ret ptr %common.ret40.op

58:                                               ; preds = %Abc_NodeSetTravIdCurrent.exit
  %.val32 = load ptr, ptr %1, align 8, !tbaa !78
  %59 = getelementptr i8, ptr %1, i64 32
  %.val33 = load ptr, ptr %59, align 8, !tbaa !107
  %60 = getelementptr i8, ptr %.val32, i64 32
  %.val32.val = load ptr, ptr %60, align 8, !tbaa !96
  %.val33.val = load i32, ptr %.val33, align 4, !tbaa !48
  %61 = getelementptr i8, ptr %.val32.val, i64 8
  %.val32.val.val = load ptr, ptr %61, align 8, !tbaa !24
  %62 = sext i32 %.val33.val to i64
  %63 = getelementptr inbounds ptr, ptr %.val32.val.val, i64 %62
  %64 = load ptr, ptr %63, align 8, !tbaa !44
  %65 = tail call ptr @Abc_NtkDontCareTransfer_rec(ptr noundef %0, ptr noundef %64, ptr noundef %2)
  %66 = ptrtoint ptr %65 to i64
  %.val34 = load ptr, ptr %1, align 8, !tbaa !78
  %.val35 = load ptr, ptr %59, align 8, !tbaa !107
  %67 = getelementptr i8, ptr %.val34, i64 32
  %.val34.val = load ptr, ptr %67, align 8, !tbaa !96
  %68 = getelementptr i8, ptr %.val35, i64 4
  %.val35.val = load i32, ptr %68, align 4, !tbaa !48
  %69 = getelementptr i8, ptr %.val34.val, i64 8
  %.val34.val.val = load ptr, ptr %69, align 8, !tbaa !24
  %70 = sext i32 %.val35.val to i64
  %71 = getelementptr inbounds ptr, ptr %.val34.val.val, i64 %70
  %72 = load ptr, ptr %71, align 8, !tbaa !44
  %73 = tail call ptr @Abc_NtkDontCareTransfer_rec(ptr noundef %0, ptr noundef %72, ptr noundef %2)
  %74 = ptrtoint ptr %73 to i64
  %75 = trunc i64 %66 to i16
  %76 = getelementptr i8, ptr %1, i64 20
  %.val36 = load i32, ptr %76, align 4
  %77 = trunc i32 %.val36 to i16
  %78 = lshr i16 %77, 10
  %79 = and i16 %78, 1
  %80 = xor i16 %79, %75
  %81 = trunc i64 %74 to i16
  %82 = lshr i16 %77, 11
  %83 = and i16 %82, 1
  %84 = xor i16 %83, %81
  %85 = tail call fastcc zeroext i16 @Odc_And(ptr noundef %0, i16 noundef zeroext %80, i16 noundef zeroext %84)
  %86 = lshr i64 %66, 16
  %87 = trunc i64 %86 to i16
  %.val37 = load i32, ptr %76, align 4
  %88 = trunc i32 %.val37 to i16
  %89 = lshr i16 %88, 10
  %90 = and i16 %89, 1
  %91 = xor i16 %90, %87
  %92 = lshr i64 %74, 16
  %93 = trunc i64 %92 to i16
  %94 = lshr i16 %88, 11
  %95 = and i16 %94, 1
  %96 = xor i16 %95, %93
  %97 = tail call fastcc zeroext i16 @Odc_And(ptr noundef %0, i16 noundef zeroext %91, i16 noundef zeroext %96)
  %98 = zext i16 %97 to i32
  %99 = shl nuw i32 %98, 16
  %100 = zext i16 %85 to i32
  %101 = or disjoint i32 %99, %100
  %102 = sext i32 %101 to i64
  %103 = inttoptr i64 %102 to ptr
  %104 = getelementptr inbounds nuw i8, ptr %1, i64 64
  store ptr %103, ptr %104, align 8, !tbaa !110
  br label %common.ret40
}